target datalayout = "e-m:e-p270:32:32-p271:32:32-p272:64:64-i64:64-i128:128-f80:128-n8:16:32:64-S128"
target triple = "x86_64-pc-linux-gnu"

%struct.Ivy_Obj_t_ = type { i32, i32, i32, i32, ptr, ptr, ptr, ptr, ptr, ptr, ptr, ptr }
%struct.Ivy_FraigMan_t_ = type { ptr, i64, i64, ptr, ptr, i32, ptr, ptr, i32, ptr, ptr, %struct.Ivy_FraigList_t_, %struct.Ivy_FraigList_t_, i32, ptr, i32, ptr, ptr, i32, i32, i32, i32, i32, i32, i32, i32, i32, i32, i32, i32, i32, i64, i64, i64, i64, i64, i64, i64, i64, i64, i64 }
%struct.Ivy_FraigList_t_ = type { ptr, ptr, i32 }
%struct.Ivy_FraigSim_t_ = type { i32, ptr, ptr, ptr, [0 x i32] }

; Function Attrs: inlinehint nounwind uwtable
define internal ptr @Ivy_ObjSim(ptr noundef %0) #4 {
  %2 = alloca ptr, align 8
  store ptr %0, ptr %2, align 8, !tbaa !72
  %3 = load ptr, ptr %2, align 8, !tbaa !72
  %4 = getelementptr inbounds nuw %struct.Ivy_Obj_t_, ptr %3, i32 0, i32 6
  %5 = load ptr, ptr %4, align 8, !tbaa !126
  ret ptr %5
}

; Function Attrs: nounwind uwtable
define i32 @Ivy_NodeCompareSims(ptr noundef %0, ptr noundef %1, ptr noundef %2) #0 {
  %4 = alloca i32, align 4
  %5 = alloca ptr, align 8
  %6 = alloca ptr, align 8
  %7 = alloca ptr, align 8
  %8 = alloca ptr, align 8
  %9 = alloca ptr, align 8
  %10 = alloca i32, align 4
  %11 = alloca i32, align 4
  store ptr %0, ptr %5, align 8, !tbaa !60
  store ptr %1, ptr %6, align 8, !tbaa !72
  store ptr %2, ptr %7, align 8, !tbaa !72
  call void @llvm.lifetime.start.p0(i64 8, ptr %8) #12
  call void @llvm.lifetime.start.p0(i64 8, ptr %9) #12
  call void @llvm.lifetime.start.p0(i64 4, ptr %10) #12
  %12 = load ptr, ptr %6, align 8, !tbaa !72
  %13 = call ptr @Ivy_ObjSim(ptr noundef %12)
  store ptr %13, ptr %8, align 8, !tbaa !102
  %14 = load ptr, ptr %7, align 8, !tbaa !72
  %15 = call ptr @Ivy_ObjSim(ptr noundef %14)
  store ptr %15, ptr %9, align 8, !tbaa !102
  store i32 0, ptr %10, align 4, !tbaa !44
  br label %16

16:                                               ; preds = %38, %3
  %17 = load i32, ptr %10, align 4, !tbaa !44
  %18 = load ptr, ptr %5, align 8, !tbaa !60
  %19 = getelementptr inbounds nuw %struct.Ivy_FraigMan_t_, ptr %18, i32 0, i32 5
  %20 = load i32, ptr %19, align 8, !tbaa !100
  %21 = icmp slt i32 %17, %20
  br i1 %21, label %22, label %41

22:                                               ; preds = %16
  %23 = load ptr, ptr %8, align 8, !tbaa !102
  %24 = getelementptr inbounds nuw %struct.Ivy_FraigSim_t_, ptr %23, i32 0, i32 4
  %25 = load i32, ptr %10, align 4, !tbaa !44
  %26 = sext i32 %25 to i64
  %27 = getelementptr inbounds [0 x i32], ptr %24, i64 0, i64 %26
  %28 = load i32, ptr %27, align 4, !tbaa !44
  %29 = load ptr, ptr %9, align 8, !tbaa !102
  %30 = getelementptr inbounds nuw %struct.Ivy_FraigSim_t_, ptr %29, i32 0, i32 4
  %31 = load i32, ptr %10, align 4, !tbaa !44
  %32 = sext i32 %31 to i64
  %33 = getelementptr inbounds [0 x i32], ptr %30, i64 0, i64 %32
  %34 = load i32, ptr %33, align 4, !tbaa !44
  %35 = icmp ne i32 %28, %34
  br i1 %35, label %36, label %37

36:                                               ; preds = %22
  store i32 0, ptr %4, align 4
  store i32 1, ptr %11, align 4
  br label %42

37:                                               ; preds = %22
  br label %38

38:                                               ; preds = %37
  %39 = load i32, ptr %10, align 4, !tbaa !44
  %40 = add nsw i32 %39, 1
  store i32 %40, ptr %10, align 4, !tbaa !44
  br label %16, !llvm.loop !144

41:                                               ; preds = %16
  store i32 1, ptr %4, align 4
  store i32 1, ptr %11, align 4
  br label %42

42:                                               ; preds = %41, %36
  call void @llvm.lifetime.end.p0(i64 4, ptr %10) #12
  call void @llvm.lifetime.end.p0(i64 8, ptr %9) #12
  call void @llvm.lifetime.end.p0(i64 8, ptr %8) #12
  %43 = load i32, ptr %4, align 4
  ret i32 %43
}