; Function Attrs: nofree norecurse nosync nounwind memory(read, inaccessiblemem: none) uwtable
define range(i32 0, 2) i32 @Ivy_NodeCompareSims(ptr noundef readonly captures(none) %0, ptr noundef readonly captures(none) %1, ptr noundef readonly captures(none) %2) local_unnamed_addr #10 {
  %4 = getelementptr i8, ptr %1, i64 32
  %.val10 = load ptr, ptr %4, align 8, !tbaa !103
  %5 = getelementptr inbounds nuw i8, ptr %.val10, i64 32
  %6 = getelementptr inbounds nuw i8, ptr %0, i64 40
  %7 = load i32, ptr %6, align 8, !tbaa !96
  %8 = icmp sgt i32 %7, 0
  br i1 %8, label %.lr.ph, label %._crit_edge

.lr.ph:                                           ; preds = %3
  %9 = getelementptr i8, ptr %2, i64 32
  %.val = load ptr, ptr %9, align 8, !tbaa !103
  %10 = getelementptr inbounds nuw i8, ptr %.val, i64 32
  %wide.trip.count = zext nneg i32 %7 to i64
  br label %12

11:                                               ; preds = %12
  %indvars.iv.next = add nuw nsw i64 %indvars.iv, 1
  %exitcond.not = icmp eq i64 %indvars.iv.next, %wide.trip.count
  br i1 %exitcond.not, label %._crit_edge, label %12, !llvm.loop !159

12:                                               ; preds = %.lr.ph, %11
  %indvars.iv = phi i64 [ 0, %.lr.ph ], [ %indvars.iv.next, %11 ]
  %13 = getelementptr inbounds nuw [0 x i32], ptr %5, i64 0, i64 %indvars.iv
  %14 = load i32, ptr %13, align 4, !tbaa !38
  %15 = getelementptr inbounds nuw [0 x i32], ptr %10, i64 0, i64 %indvars.iv
  %16 = load i32, ptr %15, align 4, !tbaa !38
  %.not = icmp eq i32 %14, %16
  br i1 %.not, label %11, label %._crit_edge

._crit_edge:                                      ; preds = %12, %11, %3
  %.09 = phi i32 [ 1, %3 ], [ 1, %11 ], [ 0, %12 ]
  ret i32 %.09
}